target datalayout = "e-m:e-p270:32:32-p271:32:32-p272:64:64-i64:64-i128:128-f80:128-n8:16:32:64-S128"
target triple = "x86_64-pc-linux-gnu"

%"class.std::__cxx11::basic_string" = type { %"struct.std::__cxx11::basic_string<char>::_Alloc_hider", i64, %union.anon }
%"struct.std::__cxx11::basic_string<char>::_Alloc_hider" = type { ptr }
%union.anon = type { i64, [8 x i8] }
%"class.testing::internal::FilePath" = type { %"class.std::__cxx11::basic_string" }
%struct.stat = type { i64, i64, i64, i32, i32, i32, i32, i64, i64, i64, i64, %struct.timespec, %struct.timespec, %struct.timespec, [3 x i64] }
%struct.timespec = type { i64, i64 }

; Function Attrs: inlinehint mustprogress nounwind uwtable
define linkonce_odr noundef zeroext i1 @_ZN7testing8internal5posix5IsDirERK4stat(ptr noundef nonnull align 8 dereferenceable(144) %0) #5 comdat {
  %2 = alloca ptr, align 8
  store ptr %0, ptr %2, align 8, !tbaa !267
  %3 = load ptr, ptr %2, align 8, !tbaa !267
  %4 = getelementptr inbounds nuw %struct.stat, ptr %3, i32 0, i32 3
  %5 = load i32, ptr %4, align 8, !tbaa !269
  %6 = and i32 %5, 61440
  %7 = icmp eq i32 %6, 16384
  ret i1 %7
}

; Function Attrs: inlinehint mustprogress nounwind uwtable
define linkonce_odr noundef i32 @_ZN7testing8internal5posix4StatEPKcP4stat(ptr noundef %0, ptr noundef %1) #5 comdat {
  %3 = alloca ptr, align 8
  %4 = alloca ptr, align 8
  store ptr %0, ptr %3, align 8, !tbaa !31
  store ptr %1, ptr %4, align 8, !tbaa !267
  %5 = load ptr, ptr %3, align 8, !tbaa !31
  %6 = load ptr, ptr %4, align 8, !tbaa !267
  %7 = call i32 @stat(ptr noundef %5, ptr noundef %6) #3
  ret i32 %7
}

; Function Attrs: mustprogress nounwind uwtable
define linkonce_odr noundef ptr @_ZNK7testing8internal8FilePath5c_strEv(ptr noundef nonnull align 8 dereferenceable(32) %0) #7 comdat align 2 {
  %2 = alloca ptr, align 8
  store ptr %0, ptr %2, align 8, !tbaa !260
  %3 = load ptr, ptr %2, align 8
  %4 = getelementptr inbounds nuw %"class.testing::internal::FilePath", ptr %3, i32 0, i32 0
  %5 = call noundef ptr @_ZNKSt7__cxx1112basic_stringIcSt11char_traitsIcESaIcEE5c_strEv(ptr noundef nonnull align 8 dereferenceable(32) %4) #3
  ret ptr %5
}

; Function Attrs: mustprogress nounwind uwtable
define available_externally noundef ptr @_ZNKSt7__cxx1112basic_stringIcSt11char_traitsIcESaIcEE7_M_dataEv(ptr noundef nonnull align 8 dereferenceable(32) %0) #7 align 2 {
  %2 = alloca ptr, align 8
  store ptr %0, ptr %2, align 8, !tbaa !24
  %3 = load ptr, ptr %2, align 8
  %4 = getelementptr inbounds nuw %"class.std::__cxx11::basic_string", ptr %3, i32 0, i32 0
  %5 = getelementptr inbounds nuw %"struct.std::__cxx11::basic_string<char>::_Alloc_hider", ptr %4, i32 0, i32 0
  %6 = load ptr, ptr %5, align 8, !tbaa !968
  ret ptr %6
}

; Function Attrs: mustprogress uwtable
define noundef zeroext i1 @_ZNK7testing8internal8FilePath15DirectoryExistsEv(ptr noundef nonnull align 8 dereferenceable(32) %0) #4 align 2 {
  %2 = alloca ptr, align 8
  %3 = alloca i8, align 1
  %4 = alloca ptr, align 8
  %5 = alloca %struct.stat, align 8
  store ptr %0, ptr %2, align 8, !tbaa !260
  %6 = load ptr, ptr %2, align 8
  call void @llvm.lifetime.start.p0(i64 1, ptr %3) #3
  store i8 0, ptr %3, align 1, !tbaa !27
  call void @llvm.lifetime.start.p0(i64 8, ptr %4) #3
  store ptr %6, ptr %4, align 8, !tbaa !260
  call void @llvm.lifetime.start.p0(i64 144, ptr %5) #3
  call void @llvm.memset.p0.i64(ptr align 8 %5, i8 0, i64 144, i1 false)
  %7 = load ptr, ptr %4, align 8, !tbaa !260
  %8 = call noundef ptr @_ZNK7testing8internal8FilePath5c_strEv(ptr noundef nonnull align 8 dereferenceable(32) %7)
  %9 = call noundef i32 @_ZN7testing8internal5posix4StatEPKcP4stat(ptr noundef %8, ptr noundef %5)
  %10 = icmp eq i32 %9, 0
  br i1 %10, label %11, label %13

11:                                               ; preds = %1
  %12 = call noundef zeroext i1 @_ZN7testing8internal5posix5IsDirERK4stat(ptr noundef nonnull align 8 dereferenceable(144) %5)
  br label %13

13:                                               ; preds = %11, %1
  %14 = phi i1 [ false, %1 ], [ %12, %11 ]
  %15 = zext i1 %14 to i8
  store i8 %15, ptr %3, align 1, !tbaa !27
  %16 = load i8, ptr %3, align 1, !tbaa !27, !range !18, !noundef !19
  %17 = trunc i8 %16 to i1
  call void @llvm.lifetime.end.p0(i64 144, ptr %5) #3
  call void @llvm.lifetime.end.p0(i64 8, ptr %4) #3
  call void @llvm.lifetime.end.p0(i64 1, ptr %3) #3
  ret i1 %17
}

; Function Attrs: mustprogress nounwind uwtable
define available_externally noundef ptr @_ZNKSt7__cxx1112basic_stringIcSt11char_traitsIcESaIcEE5c_strEv(ptr noundef nonnull align 8 dereferenceable(32) %0) #7 align 2 {
  %2 = alloca ptr, align 8
  store ptr %0, ptr %2, align 8, !tbaa !24
  %3 = load ptr, ptr %2, align 8
  %4 = call noundef ptr @_ZNKSt7__cxx1112basic_stringIcSt11char_traitsIcESaIcEE7_M_dataEv(ptr noundef nonnull align 8 dereferenceable(32) %3)
  ret ptr %4
}

; Function Attrs: mustprogress uwtable
define noundef zeroext i1 @_ZNK7testing8internal8FilePath12CreateFolderEv(ptr noundef nonnull align 8 dereferenceable(32) %0) #4 align 2 {
  %2 = alloca i1, align 1
  %3 = alloca ptr, align 8
  %4 = alloca i32, align 4
  %5 = alloca i32, align 4
  store ptr %0, ptr %3, align 8, !tbaa !260
  %6 = load ptr, ptr %3, align 8
  call void @llvm.lifetime.start.p0(i64 4, ptr %4) #3
  %7 = getelementptr inbounds nuw %"class.testing::internal::FilePath", ptr %6, i32 0, i32 0
  %8 = call noundef ptr @_ZNKSt7__cxx1112basic_stringIcSt11char_traitsIcESaIcEE5c_strEv(ptr noundef nonnull align 8 dereferenceable(32) %7) #3
  %9 = call i32 @mkdir(ptr noundef %8, i32 noundef 511) #3
  store i32 %9, ptr %4, align 4, !tbaa !39
  %10 = load i32, ptr %4, align 4, !tbaa !39
  %11 = icmp eq i32 %10, -1
  br i1 %11, label %12, label %14

12:                                               ; preds = %1
  %13 = call noundef zeroext i1 @_ZNK7testing8internal8FilePath15DirectoryExistsEv(ptr noundef nonnull align 8 dereferenceable(32) %6)
  store i1 %13, ptr %2, align 1
  store i32 1, ptr %5, align 4
  br label %15

14:                                               ; preds = %1
  store i1 true, ptr %2, align 1
  store i32 1, ptr %5, align 4
  br label %15

15:                                               ; preds = %14, %12
  call void @llvm.lifetime.end.p0(i64 4, ptr %4) #3
  %16 = load i1, ptr %2, align 1
  ret i1 %16
}