; Function Attrs: mustprogress nofree nounwind uwtable
define noundef zeroext i1 @_ZNK7testing8internal8FilePath12CreateFolderEv(ptr noundef nonnull readonly align 8 captures(none) dereferenceable(32) %0) local_unnamed_addr #25 align 2 {
  %2 = alloca %struct.stat, align 8
  %3 = load ptr, ptr %0, align 8, !tbaa !22
  %4 = tail call i32 @mkdir(ptr noundef %3, i32 noundef 511) #57
  %5 = icmp eq i32 %4, -1
  br i1 %5, label %6, label %15

6:                                                ; preds = %1
  call void @llvm.lifetime.start.p0(i64 144, ptr nonnull %2) #57
  call void @llvm.memset.p0.i64(ptr noundef nonnull align 8 dereferenceable(144) %2, i8 0, i64 144, i1 false)
  %7 = load ptr, ptr %0, align 8, !tbaa !22
  %8 = call noundef i32 @stat(ptr noundef %7, ptr noundef nonnull %2) #57
  %9 = icmp eq i32 %8, 0
  %10 = getelementptr inbounds nuw i8, ptr %2, i64 24
  %11 = load i32, ptr %10, align 8
  %12 = and i32 %11, 61440
  %13 = icmp eq i32 %12, 16384
  %14 = select i1 %9, i1 %13, i1 false
  call void @llvm.lifetime.end.p0(i64 144, ptr nonnull %2) #57
  br label %15

15:                                               ; preds = %1, %6
  %.0 = phi i1 [ %14, %6 ], [ true, %1 ]
  ret i1 %.0
}